; Listing generated by Microsoft (R) Optimizing Compiler Version 19.15.26732.1 

	TITLE	C:\Users\caleb\OneDrive - University of Texas at San Antonio\Workspace\git\cmp_org_T18-Encryptor-Decryptor-\_milestone2\Mile2\Mile1\EncryptData_Initial.cpp
	.686P
	.XMM
	include listing.inc
	.model	flat

INCLUDELIB LIBCMTD
INCLUDELIB OLDNAMES

msvcjmc	SEGMENT
__7C512EE2_ctype@h DB 01H
__5BEBA810_basetsd@h DB 01H
__07523DAF_corecrt_memcpy_s@h DB 01H
__9F081559_corecrt_memory@h DB 01H
__9CE3A74D_corecrt_wstring@h DB 01H
__78F4D6C6_string@h DB 01H
__F7698904_guiddef@h DB 01H
__1D5C983A_winnt@h DB 01H
__4D75C327_processthreadsapi@h DB 01H
__A1C010E7_memoryapi@h DB 01H
__3CD9AC13_winerror@h DB 01H
__7D6EA4B0_winbase@h DB 01H
__1586EFC7_winuser@h DB 01H
__ED00179D_winioctl@h DB 01H
__FE874262_stdlib@h DB 01H
__22D85348_propidl@h DB 01H
__A325E0C4_oleauto@h DB 01H
__49821EBB_stralign@h DB 01H
__320E01E0_corecrt_stdio_config@h DB 01H
__BAC7FC50_corecrt_wstdio@h DB 01H
__A3797CDC_stdio@h DB 01H
__BE076D93_corecrt_wio@h DB 01H
__CEEB45E5_corecrt_io@h DB 01H
__4D762EE4_encryptdata_initial@cpp DB 01H
msvcjmc	ENDS
PUBLIC	?encryptData@@YAHPADH@Z				; encryptData
PUBLIC	__JustMyCode_Default
EXTRN	@__security_check_cookie@4:PROC
EXTRN	__RTC_CheckEsp:PROC
EXTRN	__RTC_InitBase:PROC
EXTRN	__RTC_Shutdown:PROC
EXTRN	?gptrKey@@3PAEA:DWORD				; gptrKey
EXTRN	?gptrPasswordHash@@3PAEA:DWORD			; gptrPasswordHash
EXTRN	?gdebug1@@3EA:BYTE				; gdebug1
EXTRN	?gdebug2@@3EA:BYTE				; gdebug2
EXTRN	___security_cookie:DWORD
;	COMDAT rtc$TMZ
rtc$TMZ	SEGMENT
__RTC_Shutdown.rtc$TMZ DD FLAT:__RTC_Shutdown
rtc$TMZ	ENDS
;	COMDAT rtc$IMZ
rtc$IMZ	SEGMENT
__RTC_InitBase.rtc$IMZ DD FLAT:__RTC_InitBase
rtc$IMZ	ENDS
; Function compile flags: /Odt
;	COMDAT __JustMyCode_Default
_TEXT	SEGMENT
__JustMyCode_Default PROC				; COMDAT
  00000	55		 push	 ebp
  00001	8b ec		 mov	 ebp, esp
  00003	5d		 pop	 ebp
  00004	c3		 ret	 0
__JustMyCode_Default ENDP
_TEXT	ENDS
; Function compile flags: /Odtp /RTCsu /ZI
; File c:\users\caleb\onedrive - university of texas at san antonio\workspace\git\cmp_org_t18-encryptor-decryptor-\_milestone2\mile2\mile1\encryptdata_initial.cpp
;	COMDAT ?encryptData@@YAHPADH@Z
_TEXT	SEGMENT
_resulti$ = -12						; size = 4
__$ArrayPad$ = -4					; size = 4
_data$ = 8						; size = 4
_dataLength$ = 12					; size = 4
?encryptData@@YAHPADH@Z PROC				; encryptData, COMDAT

; 11   : {

  00000	55		 push	 ebp
  00001	8b ec		 mov	 ebp, esp
  00003	81 ec d0 00 00
	00		 sub	 esp, 208		; 000000d0H
  00009	53		 push	 ebx
  0000a	56		 push	 esi
  0000b	57		 push	 edi
  0000c	8d bd 30 ff ff
	ff		 lea	 edi, DWORD PTR [ebp-208]
  00012	b9 34 00 00 00	 mov	 ecx, 52			; 00000034H
  00017	b8 cc cc cc cc	 mov	 eax, -858993460		; ccccccccH
  0001c	f3 ab		 rep stosd
  0001e	a1 00 00 00 00	 mov	 eax, DWORD PTR ___security_cookie
  00023	33 c5		 xor	 eax, ebp
  00025	89 45 fc	 mov	 DWORD PTR __$ArrayPad$[ebp], eax

; 12   : 	int resulti = 0;

  00028	c7 45 f4 00 00
	00 00		 mov	 DWORD PTR _resulti$[ebp], 0

; 13   : 
; 14   : 	gdebug1 = 0;					// a couple of global variables that could be used for debugging

  0002f	c6 05 00 00 00
	00 00		 mov	 BYTE PTR ?gdebug1@@3EA, 0 ; gdebug1

; 15   : 	gdebug2 = 0;					// also can have a breakpoint in C code

  00036	c6 05 00 00 00
	00 00		 mov	 BYTE PTR ?gdebug2@@3EA, 0 ; gdebug2

; 16   : 
; 17   : 	// You can not declare any local variables in C, but should use resulti to indicate any errors
; 18   : 	// Set up the stack frame and assign variables in assembly if you need to do so
; 19   : 	// access the parameters BEFORE setting up your own stack frame
; 20   : 	// Also, you cannot use a lot of global variables - work with registers
; 21   : 
; 22   : 	__asm {
; 23   : mov esi, gptrPasswordHash	// put address of gPasswordHas into esi

  0003d	8b 35 00 00 00
	00		 mov	 esi, DWORD PTR ?gptrPasswordHash@@3PAEA ; gptrPasswordHash

; 24   : 			xor eax, eax				//

  00043	33 c0		 xor	 eax, eax

; 25   : 			mov al, byte ptr[esi]		// store gPassword[0] in al

  00045	8a 06		 mov	 al, BYTE PTR [esi]

; 26   : 			mov bl, 256					//

  00047	b3 00		 mov	 bl, 0

; 27   : 			mul bl						// multiply al by 256

  00049	f6 e3		 mul	 bl

; 28   : 			add al, byte ptr[esi + 1]	// add gPassword[1] to al, al is now starting index for keyfile

  0004b	02 46 01	 add	 al, BYTE PTR [esi+1]

; 29   : 			mov gdebug1, al				// al = starting_index = gPasswordHash[0] * 256 + gPasswordHash[1]

  0004e	a2 00 00 00 00	 mov	 BYTE PTR ?gdebug1@@3EA, al ; gdebug1

; 30   : 
; 31   : 			xor ebx, ebx				// ebx = control variable (loop)

  00053	33 db		 xor	 ebx, ebx

; 32   : 			mov ecx, dataLength			// ecx = length

  00055	8b 4d 0c	 mov	 ecx, DWORD PTR _dataLength$[ebp]

; 33   : 			cmp ecx, 0					// check that length is not <= 0

  00058	83 f9 00	 cmp	 ecx, 0

; 34   : 			sub ecx, 1					// ecx-- (file length is 1 less than what we had)

  0005b	83 e9 01	 sub	 ecx, 1

; 35   : 			jbe lbl_EXIT_ZERO_LENGTH	//

  0005e	76 73		 jbe	 SHORT $lbl_EXIT_ZERO_LENGTH$3

; 36   : 
; 37   : 			mov edi, data				// put address of first byte of data in edi

  00060	8b 7d 08	 mov	 edi, DWORD PTR _data$[ebp]

; 38   : 			mov esi, gptrKey			// put address of gKey into esi

  00063	8b 35 00 00 00
	00		 mov	 esi, DWORD PTR ?gptrKey@@3PAEA ; gptrKey
$lbl_LOOP$4:

; 39   : 
; 40   : 		//
; 41   : 		// LOOP THROUGH ENTIRE data[] BYTE BY BYTE
; 42   : 		//
; 43   : lbl_LOOP :
; 44   : 			mov dl, byte ptr[edi + ebx]	//

  00069	8a 14 1f	 mov	 dl, BYTE PTR [edi+ebx]

; 45   : 			xor dl, byte ptr[esi + eax]	// edx = data[ebx] ^ keyfile[starting_index]

  0006c	32 14 06	 xor	 dl, BYTE PTR [esi+eax]

; 46   : 			// mov byte ptr[edi + ebx], dl	moved to end
; 47   : 
; 48   : 			push edx					//	push edx so the functions can use it

  0006f	52		 push	 edx

; 49   : 			call stepC					//	C

  00070	e8 4f 00 00 00	 call	 $stepC$5

; 50   : 
; 51   : 			call stepD					//	D

  00075	e8 4f 00 00 00	 call	 $stepD$6

; 52   : 
; 53   : 			call stepE					//	E

  0007a	e8 4f 00 00 00	 call	 $stepE$7

; 54   : 
; 55   : 			call stepB					//	B

  0007f	e8 31 00 00 00	 call	 $stepB$8

; 56   : 
; 57   : 			call stepA					//	A

  00084	e8 0d 00 00 00	 call	 $stepA$9

; 58   : 			pop edx						// restore edx

  00089	5a		 pop	 edx

; 59   : 
; 60   : 			mov byte ptr[edi + ebx], dl	// data[ebx] = edx

  0008a	88 14 1f	 mov	 BYTE PTR [edi+ebx], dl

; 61   : 			add ebx, 1					// ebx++

  0008d	83 c3 01	 add	 ebx, 1

; 62   : 			cmp ebx, ecx				// if(ebx > ecx) end loop

  00090	3b d9		 cmp	 ebx, ecx

; 63   : 			ja lbl_EXIT_END				//

  00092	77 44		 ja	 SHORT $lbl_EXIT_END$10

; 64   : 			jmp lbl_LOOP				// else loop

  00094	eb d3		 jmp	 SHORT $lbl_LOOP$4
$stepA$9:

; 65   : 
; 66   : stepA:									//									A
; 67   : 			push ebp					// Step A - Swap even/odd bits											|	Example:

  00096	55		 push	 ebp

; 68   : 			mov ebp,esp					// e.g.  0xA9 -> 0x56													|			0xA9	=	1010 1001

  00097	8b ec		 mov	 ebp, esp

; 69   : 			push eax					// save old eax value													|			

  00099	50		 push	 eax

; 70   : 			mov al,byte ptr[ebp-2]		// eax = edx															|	0xAA	=	1010 1010			

  0009a	8a 45 fe	 mov	 al, BYTE PTR [ebp-2]

; 71   : 			push ecx					// save old ecx value													|	0x55	=	0101 0101	

  0009d	51		 push	 ecx

; 72   : 			mov ch,0xAA					// 0xAA has all even bits 1 and odd 0,									|	

  0009e	b5 aa		 mov	 ch, -86			; ffffffaaH

; 73   : 										// bitwise and with this value will result in showing all even bits		|		1010 1001		1010 1001
; 74   : 			and ch,al					// ch is now all the even bits of our byte								|	&	1010 1010	&	0101 0101

  000a0	22 e8		 and	 ch, al

; 75   : 			mov cl,0x55					// 0x55 has all even bits 0 and odd 1,									|	_____________	_____________

  000a2	b1 55		 mov	 cl, 85			; 00000055H

; 76   : 										// bitwise and with this value will result in showing all odd bits		|		1010 1000		0000 0001
; 77   : 			and ch,al					// cl is not all the odd bits of our byte								|	

  000a4	22 e8		 and	 ch, al

; 78   : 			shr ch,1					// shift all even bits right 1 time										|	>>	1010 1000 	<<	0000 0001

  000a6	d0 ed		 shr	 ch, 1

; 79   : 			shl cl,1					// shift all odd bits left 1 time										|	_____________	_____________

  000a8	d0 e1		 shl	 cl, 1

; 80   : 			or cl,ch					// combine them back together											|		0101 0100		0000 0010

  000aa	0a cd		 or	 cl, ch

; 81   : 			mov al,cl                   // al is now out byte with even and odd bits swapped					|						

  000ac	8a c1		 mov	 al, cl

; 82   : 			mov byte ptr[ebp-2],al		// move result back into edx (stack location)							|		0101 0100

  000ae	88 45 fe	 mov	 BYTE PTR [ebp-2], al

; 83   : 			pop ecx						// restore ecx															|	|	0000 0010	

  000b1	59		 pop	 ecx

; 84   : 			pop eax						// restore eax															|	_____________

  000b2	58		 pop	 eax

; 85   : 			pop ebp						// restore base pointer													|		0101 0110	=	0x5

  000b3	5d		 pop	 ebp

; 86   : 			ret							// return																|			 0xA9	->  0x56

  000b4	c3		 ret	 0
$stepB$8:

; 87   : 
; 88   : stepB:									//									B
; 89   : 			push ebp					// Step B - Invert middle 4 bits					|	Example:

  000b5	55		 push	 ebp

; 90   : 			mov ebp,esp					// e.g. 0x56 -> 0x6A								|			0x56	=	0101 0110

  000b6	8b ec		 mov	 ebp, esp

; 91   : 			push eax					// save old eax value								|	1 ^ 1 = 0		

  000b8	50		 push	 eax

; 92   : 			mov al,byte ptr[ebp-2]		// eax = edx										|   1 ^ 0 = 1		XOR'ing any binary value with a 0 will result in no change

  000b9	8a 45 fe	 mov	 al, BYTE PTR [ebp-2]

; 93   : 			xor al,00111100b			// this inverts the middle 4 bits					|	0 ^ 0 = 0		XOR'ing any binary value with a 1 will invert the bit

  000bc	34 3c		 xor	 al, 60			; 0000003cH

; 94   : 			mov byte ptr[ebp-2],al		// move result into edx (on the stack)				|	0 ^ 1 = 1		So, using XOR'ing our byte with 0011 1100 will invert

  000be	88 45 fe	 mov	 BYTE PTR [ebp-2], al

; 95   : 			pop eax						// restore eax										|					the middle 4 bits

  000c1	58		 pop	 eax

; 96   : 			pop ebp						// restore base pointer								|		0101 0110

  000c2	5d		 pop	 ebp

; 97   : 			ret							// return											|	^	0011 1100

  000c3	c3		 ret	 0
$stepC$5:

; 98   : 										//													|	_____________
; 99   : 										//													|		0110 1010	=	0x6A	;	0x56 -> 0x 6A
; 100  : 
; 101  : stepC:
; 102  : 			push ebp		// Step C - Swap nibbles

  000c4	55		 push	 ebp

; 103  : 			mov ebp,esp		// e.g. 0x6A -> 0xA6

  000c5	8b ec		 mov	 ebp, esp

; 104  : 			// <-math here
; 105  : 			pop ebp			//

  000c7	5d		 pop	 ebp

; 106  : 			ret				//

  000c8	c3		 ret	 0
$stepD$6:

; 107  : 
; 108  : stepD:
; 109  : 			push ebp		// Step D - Code Table Swap

  000c9	55		 push	 ebp

; 110  : 			mov ebp,esp		// e.g. 0xA6 -> CodeTable[0xA6]

  000ca	8b ec		 mov	 ebp, esp

; 111  : 			// <-math here
; 112  : 			pop ebp			//

  000cc	5d		 pop	 ebp

; 113  : 			ret				//

  000cd	c3		 ret	 0
$stepE$7:

; 114  : 
; 115  : stepE:
; 116  : 			push ebp		// Step E - Reverse Bit Order

  000ce	55		 push	 ebp

; 117  : 			mov ebp,esp		// e.g. 0xCA -> 0x53

  000cf	8b ec		 mov	 ebp, esp

; 118  : 			// <-math here
; 119  : 			pop ebp			//

  000d1	5d		 pop	 ebp

; 120  : 			ret				//

  000d2	c3		 ret	 0
$lbl_EXIT_ZERO_LENGTH$3:

; 121  : 
; 122  : 
; 123  : lbl_EXIT_ZERO_LENGTH :
; 124  : 			sub ebx, 1		// decrement ebx to -1 to return failure

  000d3	83 eb 01	 sub	 ebx, 1

; 125  : 			jmp lbl_EXIT	//

  000d6	eb 02		 jmp	 SHORT $lbl_EXIT$11
$lbl_EXIT_END$10:

; 126  : 
; 127  : lbl_EXIT_END :
; 128  : 			xor ebx, ebx		// ebx = 0, correctly executed

  000d8	33 db		 xor	 ebx, ebx
$lbl_EXIT$11:

; 129  : 
; 130  : lbl_EXIT :
; 131  : 			mov resulti, ebx

  000da	89 5d f4	 mov	 DWORD PTR _resulti$[ebp], ebx

; 132  : 	}
; 133  : 
; 134  : 	return resulti;

  000dd	8b 45 f4	 mov	 eax, DWORD PTR _resulti$[ebp]

; 135  : } // encryptData

  000e0	5f		 pop	 edi
  000e1	5e		 pop	 esi
  000e2	5b		 pop	 ebx
  000e3	8b 4d fc	 mov	 ecx, DWORD PTR __$ArrayPad$[ebp]
  000e6	33 cd		 xor	 ecx, ebp
  000e8	e8 00 00 00 00	 call	 @__security_check_cookie@4
  000ed	81 c4 d0 00 00
	00		 add	 esp, 208		; 000000d0H
  000f3	3b ec		 cmp	 ebp, esp
  000f5	e8 00 00 00 00	 call	 __RTC_CheckEsp
  000fa	8b e5		 mov	 esp, ebp
  000fc	5d		 pop	 ebp
  000fd	c3		 ret	 0
?encryptData@@YAHPADH@Z ENDP				; encryptData
_TEXT	ENDS
END
