; Listing generated by Microsoft (R) Optimizing Compiler Version 19.15.26732.1 

	TITLE	C:\Users\caleb\OneDrive - University of Texas at San Antonio\Workspace\git\cmp_org_T18-Encryptor-Decryptor-\_milestone2\Mile2\Mile1\EncryptData_Initial.cpp
	.686P
	.XMM
	include listing.inc
	.model	flat

INCLUDELIB LIBCMTD
INCLUDELIB OLDNAMES

msvcjmc	SEGMENT
__7C512EE2_ctype@h DB 01H
__5BEBA810_basetsd@h DB 01H
__07523DAF_corecrt_memcpy_s@h DB 01H
__9F081559_corecrt_memory@h DB 01H
__9CE3A74D_corecrt_wstring@h DB 01H
__78F4D6C6_string@h DB 01H
__F7698904_guiddef@h DB 01H
__1D5C983A_winnt@h DB 01H
__4D75C327_processthreadsapi@h DB 01H
__A1C010E7_memoryapi@h DB 01H
__3CD9AC13_winerror@h DB 01H
__7D6EA4B0_winbase@h DB 01H
__1586EFC7_winuser@h DB 01H
__ED00179D_winioctl@h DB 01H
__FE874262_stdlib@h DB 01H
__22D85348_propidl@h DB 01H
__A325E0C4_oleauto@h DB 01H
__49821EBB_stralign@h DB 01H
__320E01E0_corecrt_stdio_config@h DB 01H
__BAC7FC50_corecrt_wstdio@h DB 01H
__A3797CDC_stdio@h DB 01H
__BE076D93_corecrt_wio@h DB 01H
__CEEB45E5_corecrt_io@h DB 01H
__4D762EE4_encryptdata_initial@cpp DB 01H
msvcjmc	ENDS
PUBLIC	?encryptData@@YAHPADH@Z				; encryptData
PUBLIC	__JustMyCode_Default
EXTRN	@__security_check_cookie@4:PROC
EXTRN	__RTC_CheckEsp:PROC
EXTRN	__RTC_InitBase:PROC
EXTRN	__RTC_Shutdown:PROC
EXTRN	?gptrKey@@3PAEA:DWORD				; gptrKey
EXTRN	?gptrPasswordHash@@3PAEA:DWORD			; gptrPasswordHash
EXTRN	?gdebug1@@3EA:BYTE				; gdebug1
EXTRN	?gdebug2@@3EA:BYTE				; gdebug2
EXTRN	?gEncodeTable@@3PAEA:BYTE			; gEncodeTable
EXTRN	___security_cookie:DWORD
;	COMDAT rtc$TMZ
rtc$TMZ	SEGMENT
__RTC_Shutdown.rtc$TMZ DD FLAT:__RTC_Shutdown
rtc$TMZ	ENDS
;	COMDAT rtc$IMZ
rtc$IMZ	SEGMENT
__RTC_InitBase.rtc$IMZ DD FLAT:__RTC_InitBase
rtc$IMZ	ENDS
; Function compile flags: /Odt
;	COMDAT __JustMyCode_Default
_TEXT	SEGMENT
__JustMyCode_Default PROC				; COMDAT
  00000	55		 push	 ebp
  00001	8b ec		 mov	 ebp, esp
  00003	5d		 pop	 ebp
  00004	c3		 ret	 0
__JustMyCode_Default ENDP
_TEXT	ENDS
; Function compile flags: /Odtp /RTCsu /ZI
; File c:\users\caleb\onedrive - university of texas at san antonio\workspace\git\cmp_org_t18-encryptor-decryptor-\_milestone2\mile2\mile1\encryptdata_initial.cpp
;	COMDAT ?encryptData@@YAHPADH@Z
_TEXT	SEGMENT
_resulti$ = -12						; size = 4
__$ArrayPad$ = -4					; size = 4
_data$ = 8						; size = 4
_dataLength$ = 12					; size = 4
?encryptData@@YAHPADH@Z PROC				; encryptData, COMDAT

; 11   : {

  00000	55		 push	 ebp
  00001	8b ec		 mov	 ebp, esp
  00003	81 ec d0 00 00
	00		 sub	 esp, 208		; 000000d0H
  00009	53		 push	 ebx
  0000a	56		 push	 esi
  0000b	57		 push	 edi
  0000c	8d bd 30 ff ff
	ff		 lea	 edi, DWORD PTR [ebp-208]
  00012	b9 34 00 00 00	 mov	 ecx, 52			; 00000034H
  00017	b8 cc cc cc cc	 mov	 eax, -858993460		; ccccccccH
  0001c	f3 ab		 rep stosd
  0001e	a1 00 00 00 00	 mov	 eax, DWORD PTR ___security_cookie
  00023	33 c5		 xor	 eax, ebp
  00025	89 45 fc	 mov	 DWORD PTR __$ArrayPad$[ebp], eax

; 12   : 	int resulti = 0;

  00028	c7 45 f4 00 00
	00 00		 mov	 DWORD PTR _resulti$[ebp], 0

; 13   : 
; 14   : 	gdebug1 = 0;					// a couple of global variables that could be used for debugging

  0002f	c6 05 00 00 00
	00 00		 mov	 BYTE PTR ?gdebug1@@3EA, 0 ; gdebug1

; 15   : 	gdebug2 = 0;					// also can have a breakpoint in C code

  00036	c6 05 00 00 00
	00 00		 mov	 BYTE PTR ?gdebug2@@3EA, 0 ; gdebug2

; 16   : 
; 17   : 	// You can not declare any local variables in C, but should use resulti to indicate any errors
; 18   : 	// Set up the stack frame and assign variables in assembly if you need to do so
; 19   : 	// access the parameters BEFORE setting up your own stack frame
; 20   : 	// Also, you cannot use a lot of global variables - work with registers
; 21   : 
; 22   : 	__asm {
; 23   : 			mov esi, gptrPasswordHash	// put address of gPasswordHas into esi

  0003d	8b 35 00 00 00
	00		 mov	 esi, DWORD PTR ?gptrPasswordHash@@3PAEA ; gptrPasswordHash

; 24   : 			xor eax, eax				//

  00043	33 c0		 xor	 eax, eax

; 25   : 			mov al, byte ptr[esi]		// store gPassword[0] in al

  00045	8a 06		 mov	 al, BYTE PTR [esi]

; 26   : 			shl ax,8					// shift left 8 times equivalent to multiplying by 256

  00047	66 c1 e0 08	 shl	 ax, 8

; 27   : 			xor ecx,ecx					// set ecx to 0

  0004b	33 c9		 xor	 ecx, ecx

; 28   : 			mov cl, byte ptr[esi + 1]	// set cx to gPassword[1]

  0004d	8a 4e 01	 mov	 cl, BYTE PTR [esi+1]

; 29   : 			add ax, cx					// add gPassword[1] to ax, ax is now starting index for keyfile

  00050	66 03 c1	 add	 ax, cx

; 30   : 										// ax = starting_index = gPasswordHash[0] * 256 + gPasswordHash[1]
; 31   : 
; 32   : 			xor ebx, ebx				// ebx = control variable (loop)

  00053	33 db		 xor	 ebx, ebx

; 33   : 			xor ecx,ecx

  00055	33 c9		 xor	 ecx, ecx

; 34   : 			mov ecx, dataLength			// ecx = length

  00057	8b 4d 0c	 mov	 ecx, DWORD PTR _dataLength$[ebp]

; 35   : 			cmp ecx, 0					// check that length is not <= 0

  0005a	83 f9 00	 cmp	 ecx, 0

; 36   : 			sub ecx, 1					// ecx-- (file length is 1 less than what we had)

  0005d	83 e9 01	 sub	 ecx, 1

; 37   : 			jbe lbl_EXIT_ZERO_LENGTH	//

  00060	0f 86 b9 00 00
	00		 jbe	 $lbl_EXIT_ZERO_LENGTH$3

; 38   : 
; 39   : 			mov edi, data				// put address of first byte of data in edi

  00066	8b 7d 08	 mov	 edi, DWORD PTR _data$[ebp]

; 40   : 			mov esi, gptrKey			// put address of gKey into esi

  00069	8b 35 00 00 00
	00		 mov	 esi, DWORD PTR ?gptrKey@@3PAEA ; gptrKey
$lbl_LOOP$4:

; 41   : 
; 42   : 		//
; 43   : 		// LOOP THROUGH ENTIRE data[] BYTE BY BYTE
; 44   : 		//
; 45   : lbl_LOOP :
; 46   : 			mov dl, byte ptr[edi + ebx]	//

  0006f	8a 14 1f	 mov	 dl, BYTE PTR [edi+ebx]

; 47   : 			xor dl, byte ptr[esi + eax]	// edx = data[ebx] ^ keyfile[starting_index]

  00072	32 14 06	 xor	 dl, BYTE PTR [esi+eax]

; 48   : 
; 49   : 			push edx					//	push edx so the functions can use it

  00075	52		 push	 edx

; 50   : 			call stepC					//	C

  00076	e8 53 00 00 00	 call	 $stepC$5

; 51   : 
; 52   : 			call stepD					//	D

  0007b	e8 5e 00 00 00	 call	 $stepD$6

; 53   : 
; 54   : 			call stepE					//	E

  00080	e8 77 00 00 00	 call	 $stepE$7

; 55   : 
; 56   : 			call stepB					//	B

  00085	e8 35 00 00 00	 call	 $stepB$8

; 57   : 
; 58   : 			call stepA					//	A

  0008a	e8 11 00 00 00	 call	 $stepA$9

; 59   : 			pop edx						// restore edx

  0008f	5a		 pop	 edx

; 60   : 
; 61   : 			mov byte ptr[edi + ebx], dl	// data[ebx] = edx

  00090	88 14 1f	 mov	 BYTE PTR [edi+ebx], dl

; 62   : 			add ebx, 1					// ebx++

  00093	83 c3 01	 add	 ebx, 1

; 63   : 			cmp ebx, ecx				// if(ebx > ecx) end loop

  00096	3b d9		 cmp	 ebx, ecx

; 64   : 			ja lbl_EXIT_END				//

  00098	0f 87 86 00 00
	00		 ja	 $lbl_EXIT_END$10

; 65   : 			jmp lbl_LOOP				// else loop

  0009e	eb cf		 jmp	 SHORT $lbl_LOOP$4
$stepA$9:

; 66   : 
; 67   : stepA:									//									A
; 68   : 			push ebp					// Step A - Swap even/odd bits											|	Example:

  000a0	55		 push	 ebp

; 69   : 			mov ebp,esp					// e.g.  0xA9 -> 0x56													|			0xA9	=	1010 1001

  000a1	8b ec		 mov	 ebp, esp

; 70   : 			push eax					// save old eax value													|			

  000a3	50		 push	 eax

; 71   : 			mov al,byte ptr[ebp+8]		// eax = edx, using 8 b/c we have pushed esp 4 times(edx,ret,ebp,eax)	|	0xAA	=	1010 1010			

  000a4	8a 45 08	 mov	 al, BYTE PTR [ebp+8]

; 72   : 			push ecx					// save old ecx value													|	0x55	=	0101 0101	

  000a7	51		 push	 ecx

; 73   : 			mov ch,0xAA					// 0xAA has all even bits 1 and odd 0,									|	

  000a8	b5 aa		 mov	 ch, -86			; ffffffaaH

; 74   : 										// bitwise and with this value will result in showing all even bits		|		1010 1001		1010 1001
; 75   : 			and ch,al					// ch is now all the even bits of our byte								|	&	1010 1010	&	0101 0101

  000aa	22 e8		 and	 ch, al

; 76   : 			mov cl,0x55					// 0x55 has all even bits 0 and odd 1,									|	_____________	_____________

  000ac	b1 55		 mov	 cl, 85			; 00000055H

; 77   : 										// bitwise and with this value will result in showing all odd bits		|		1010 1000		0000 0001
; 78   : 			and cl,al					// cl is not all the odd bits of our byte								|	

  000ae	22 c8		 and	 cl, al

; 79   : 			shr ch,1					// shift all even bits right 1 time										|	>>	1010 1000 	<<	0000 0001

  000b0	d0 ed		 shr	 ch, 1

; 80   : 			shl cl,1					// shift all odd bits left 1 time										|	_____________	_____________

  000b2	d0 e1		 shl	 cl, 1

; 81   : 			or cl,ch					// combine them back together											|		0101 0100		0000 0010

  000b4	0a cd		 or	 cl, ch

; 82   : 			mov al,cl                   // al is now out byte with even and odd bits swapped					|						

  000b6	8a c1		 mov	 al, cl

; 83   : 			mov byte ptr[ebp+8],al		// move result back into edx (stack location)							|		0101 0100

  000b8	88 45 08	 mov	 BYTE PTR [ebp+8], al

; 84   : 			pop ecx						// restore ecx															|	|	0000 0010	

  000bb	59		 pop	 ecx

; 85   : 			pop eax						// restore eax															|	_____________

  000bc	58		 pop	 eax

; 86   : 			pop ebp						// restore base pointer													|		0101 0110	=	0x5

  000bd	5d		 pop	 ebp

; 87   : 			ret							// return																|			 0xA9	->  0x56

  000be	c3		 ret	 0
$stepB$8:

; 88   : 
; 89   : stepB:									//									B
; 90   : 			push ebp					// Step B - Invert middle 4 bits			|	Example:

  000bf	55		 push	 ebp

; 91   : 			mov ebp,esp					// e.g. 0x56 -> 0x6A						|			0x56	=	0101 0110

  000c0	8b ec		 mov	 ebp, esp

; 92   : 			push eax					// save old eax value						|	1 ^ 1 = 0		

  000c2	50		 push	 eax

; 93   : 			mov al,byte ptr[ebp+8]		// eax = edx, 8b/c (see stepA)				|   1 ^ 0 = 1		XOR'ing any binary value with a 0 will result in no change

  000c3	8a 45 08	 mov	 al, BYTE PTR [ebp+8]

; 94   : 			xor al,00111100b			// this inverts the middle 4 bits			|	0 ^ 0 = 0		XOR'ing any binary value with a 1 will invert the bit

  000c6	34 3c		 xor	 al, 60			; 0000003cH

; 95   : 			mov byte ptr[ebp+8],al		// move result into edx (on the stack)		|	0 ^ 1 = 1		So, using XOR'ing our byte with 0011 1100 will invert

  000c8	88 45 08	 mov	 BYTE PTR [ebp+8], al

; 96   : 			pop eax						// restore eax								|					the middle 4 bits

  000cb	58		 pop	 eax

; 97   : 			pop ebp						// restore base pointer						|		0101 0110

  000cc	5d		 pop	 ebp

; 98   : 			ret							// return									|	^	0011 1100

  000cd	c3		 ret	 0
$stepC$5:

; 99   : 										//											|	_____________
; 100  : 										//											|		0110 1010	=	0x6A	;	0x56 -> 0x 6A
; 101  : 
; 102  : stepC:
; 103  : 			push ebp					// Step C - Swap nibbles			|	Example:

  000ce	55		 push	 ebp

; 104  : 			mov ebp,esp					// e.g. 0x6A -> 0xA6				|			0x6A	=	0110 1010

  000cf	8b ec		 mov	 ebp, esp

; 105  : 			push eax					// save old eax value				|		0110 1010		a nibble is just half the byte, to swap we just rotate the byte 4 times

  000d1	50		 push	 eax

; 106  : 			mov al,byte ptr[ebp+8]		// copy pushed value (edx)			|	ror 4				*note: can be rotated either right or left

  000d2	8a 45 08	 mov	 al, BYTE PTR [ebp+8]

; 107  : 			ror al,4					// rotate 4 to the right			|	_____________

  000d5	c0 c8 04	 ror	 al, 4

; 108  : 			mov byte ptr[ebp+8],al		// move result into edx (on stack)	|		1010 0110	=	0xA6

  000d8	88 45 08	 mov	 BYTE PTR [ebp+8], al

; 109  : 			pop eax						// restore eax						|

  000db	58		 pop	 eax

; 110  : 			pop ebp						// restore base pointer				|			0x6A	->	0xA6

  000dc	5d		 pop	 ebp

; 111  : 			ret							// return							|			

  000dd	c3		 ret	 0
$stepD$6:

; 112  : 
; 113  : stepD:
; 114  : 			push ebp					// Step D - Code Table Swap				

  000de	55		 push	 ebp

; 115  : 			mov ebp,esp					// e.g. 0xA6 -> CodeTable[0xA6]

  000df	8b ec		 mov	 ebp, esp

; 116  : 			push eax					// push eax register for use

  000e1	50		 push	 eax

; 117  : 			push esi					// save old esi value

  000e2	56		 push	 esi

; 118  : 			push ebx					// save old ebx value

  000e3	53		 push	 ebx

; 119  : 			xor eax,eax					// make sure eax is 0

  000e4	33 c0		 xor	 eax, eax

; 120  : 			xor ebx,ebx					// set ebx to 0

  000e6	33 db		 xor	 ebx, ebx

; 121  : 			mov al, byte ptr[ebp+8]		// get the parameter from stack

  000e8	8a 45 08	 mov	 al, BYTE PTR [ebp+8]

; 122  : 			lea esi, gEncodeTable		// put the address of the first byte of gEncodeTable into esi

  000eb	8d 35 00 00 00
	00		 lea	 esi, OFFSET ?gEncodeTable@@3PAEA

; 123  : 			mov bl, byte ptr[esi+eax]	// copy the value at the index al from gEncodeTable (gEncodeTable[al])

  000f1	8a 1c 06	 mov	 bl, BYTE PTR [esi+eax]

; 124  : 			mov byte ptr[ebp+8], bl		// copy new value back into the parameter

  000f4	88 5d 08	 mov	 BYTE PTR [ebp+8], bl

; 125  : 			pop ebx						// restore ebx

  000f7	5b		 pop	 ebx

; 126  : 			pop esi						// restore esi

  000f8	5e		 pop	 esi

; 127  : 			pop eax						// restore eax

  000f9	58		 pop	 eax

; 128  : 			pop ebp						// restore base pointer

  000fa	5d		 pop	 ebp

; 129  : 			ret							// return

  000fb	c3		 ret	 0
$stepE$7:

; 130  : 
; 131  : stepE:
; 132  : 			push ebp					// Step E - Reverse Bit Order

  000fc	55		 push	 ebp

; 133  : 			mov ebp,esp					// e.g. 0xCa -> 0x53

  000fd	8b ec		 mov	 ebp, esp

; 134  : 			push eax					// save old eax value

  000ff	50		 push	 eax

; 135  : 			push ebx					// save old ebx value

  00100	53		 push	 ebx

; 136  : 			push ecx					// save old ecx value

  00101	51		 push	 ecx

; 137  : 			mov al, byte ptr[ebp+8]		// get the parameter from stack

  00102	8a 45 08	 mov	 al, BYTE PTR [ebp+8]

; 138  : 			xor ebx,ebx					// set ebx to 0, will be our counter

  00105	33 db		 xor	 ebx, ebx

; 139  : 			xor ecx,ecx					// set ecx to 0, will be the new reversed value

  00107	33 c9		 xor	 ecx, ecx

; 140  : 			jmp lbl_ELOOP				// start looping

  00109	eb 00		 jmp	 SHORT $lbl_ELOOP$11
$lbl_ELOOP$11:

; 141  : 			
; 142  : 	lbl_ELOOP:
; 143  : 			shl al,1					// shift the right most bit into the carry

  0010b	d0 e0		 shl	 al, 1

; 144  : 			rcr cl,1					// rotate the carry into cl

  0010d	d0 d9		 rcr	 cl, 1

; 145  : 			cmp ebx,7					// compare counter to 7

  0010f	83 fb 07	 cmp	 ebx, 7

; 146  : 			je lbl_EEND					// if counter is 7 end the loop

  00112	74 03		 je	 SHORT $lbl_EEND$12

; 147  : 			inc ebx						// else increment count

  00114	43		 inc	 ebx

; 148  : 			jmp lbl_ELOOP				// and keep looping

  00115	eb f4		 jmp	 SHORT $lbl_ELOOP$11
$lbl_EEND$12:

; 149  : 
; 150  : 	lbl_EEND:
; 151  : 			mov byte ptr[ebp+8],cl		// move result into parameter

  00117	88 4d 08	 mov	 BYTE PTR [ebp+8], cl

; 152  : 			pop ecx						// restore ecx

  0011a	59		 pop	 ecx

; 153  : 			pop ebx						// restore ebx

  0011b	5b		 pop	 ebx

; 154  : 			pop eax						// restore eax

  0011c	58		 pop	 eax

; 155  : 			pop ebp						// restore base pointer

  0011d	5d		 pop	 ebp

; 156  : 			ret							// return

  0011e	c3		 ret	 0
$lbl_EXIT_ZERO_LENGTH$3:

; 157  : 
; 158  : lbl_EXIT_ZERO_LENGTH :
; 159  : 			sub ebx, 1		// decrement ebx to -1 to return failure

  0011f	83 eb 01	 sub	 ebx, 1

; 160  : 			jmp lbl_EXIT	//

  00122	eb 02		 jmp	 SHORT $lbl_EXIT$13
$lbl_EXIT_END$10:

; 161  : 
; 162  : lbl_EXIT_END :
; 163  : 			xor ebx, ebx	// ebx = 0, correctly executed

  00124	33 db		 xor	 ebx, ebx
$lbl_EXIT$13:

; 164  : 
; 165  : lbl_EXIT :
; 166  : 			mov resulti, ebx

  00126	89 5d f4	 mov	 DWORD PTR _resulti$[ebp], ebx

; 167  : 	}
; 168  : 
; 169  : 	return resulti;

  00129	8b 45 f4	 mov	 eax, DWORD PTR _resulti$[ebp]

; 170  : } // encryptData

  0012c	5f		 pop	 edi
  0012d	5e		 pop	 esi
  0012e	5b		 pop	 ebx
  0012f	8b 4d fc	 mov	 ecx, DWORD PTR __$ArrayPad$[ebp]
  00132	33 cd		 xor	 ecx, ebp
  00134	e8 00 00 00 00	 call	 @__security_check_cookie@4
  00139	81 c4 d0 00 00
	00		 add	 esp, 208		; 000000d0H
  0013f	3b ec		 cmp	 ebp, esp
  00141	e8 00 00 00 00	 call	 __RTC_CheckEsp
  00146	8b e5		 mov	 esp, ebp
  00148	5d		 pop	 ebp
  00149	c3		 ret	 0
?encryptData@@YAHPADH@Z ENDP				; encryptData
_TEXT	ENDS
END
