; Listing generated by Microsoft (R) Optimizing Compiler Version 19.15.26732.1 

	TITLE	C:\Users\caleb\OneDrive - University of Texas at San Antonio\Workspace\git\cmp_org_T18-Encryptor-Decryptor-\_milestone1\Mile1\Mile1\EncryptData_Initial.cpp
	.686P
	.XMM
	include listing.inc
	.model	flat

INCLUDELIB LIBCMTD
INCLUDELIB OLDNAMES

msvcjmc	SEGMENT
__7C512EE2_ctype@h DB 01H
__5BEBA810_basetsd@h DB 01H
__07523DAF_corecrt_memcpy_s@h DB 01H
__9F081559_corecrt_memory@h DB 01H
__9CE3A74D_corecrt_wstring@h DB 01H
__78F4D6C6_string@h DB 01H
__F7698904_guiddef@h DB 01H
__1D5C983A_winnt@h DB 01H
__4D75C327_processthreadsapi@h DB 01H
__A1C010E7_memoryapi@h DB 01H
__3CD9AC13_winerror@h DB 01H
__7D6EA4B0_winbase@h DB 01H
__1586EFC7_winuser@h DB 01H
__ED00179D_winioctl@h DB 01H
__FE874262_stdlib@h DB 01H
__22D85348_propidl@h DB 01H
__A325E0C4_oleauto@h DB 01H
__49821EBB_stralign@h DB 01H
__320E01E0_corecrt_stdio_config@h DB 01H
__BAC7FC50_corecrt_wstdio@h DB 01H
__A3797CDC_stdio@h DB 01H
__BE076D93_corecrt_wio@h DB 01H
__CEEB45E5_corecrt_io@h DB 01H
__043F28F7_encryptdata_initial@cpp DB 01H
msvcjmc	ENDS
PUBLIC	?encryptData@@YAHPADH@Z				; encryptData
PUBLIC	__JustMyCode_Default
EXTRN	@__security_check_cookie@4:PROC
EXTRN	__RTC_CheckEsp:PROC
EXTRN	__RTC_InitBase:PROC
EXTRN	__RTC_Shutdown:PROC
EXTRN	?gptrKey@@3PAEA:DWORD				; gptrKey
EXTRN	?gptrPasswordHash@@3PAEA:DWORD			; gptrPasswordHash
EXTRN	?gdebug1@@3EA:BYTE				; gdebug1
EXTRN	?gdebug2@@3EA:BYTE				; gdebug2
EXTRN	___security_cookie:DWORD
;	COMDAT rtc$TMZ
rtc$TMZ	SEGMENT
__RTC_Shutdown.rtc$TMZ DD FLAT:__RTC_Shutdown
rtc$TMZ	ENDS
;	COMDAT rtc$IMZ
rtc$IMZ	SEGMENT
__RTC_InitBase.rtc$IMZ DD FLAT:__RTC_InitBase
rtc$IMZ	ENDS
; Function compile flags: /Odt
;	COMDAT __JustMyCode_Default
_TEXT	SEGMENT
__JustMyCode_Default PROC				; COMDAT
  00000	55		 push	 ebp
  00001	8b ec		 mov	 ebp, esp
  00003	5d		 pop	 ebp
  00004	c3		 ret	 0
__JustMyCode_Default ENDP
_TEXT	ENDS
; Function compile flags: /Odtp /RTCsu /ZI
; File c:\users\caleb\onedrive - university of texas at san antonio\workspace\git\cmp_org_t18-encryptor-decryptor-\_milestone1\mile1\mile1\encryptdata_initial.cpp
;	COMDAT ?encryptData@@YAHPADH@Z
_TEXT	SEGMENT
_resulti$ = -12						; size = 4
__$ArrayPad$ = -4					; size = 4
_data$ = 8						; size = 4
_dataLength$ = 12					; size = 4
?encryptData@@YAHPADH@Z PROC				; encryptData, COMDAT

; 11   : {

  00000	55		 push	 ebp
  00001	8b ec		 mov	 ebp, esp
  00003	81 ec d0 00 00
	00		 sub	 esp, 208		; 000000d0H
  00009	53		 push	 ebx
  0000a	56		 push	 esi
  0000b	57		 push	 edi
  0000c	8d bd 30 ff ff
	ff		 lea	 edi, DWORD PTR [ebp-208]
  00012	b9 34 00 00 00	 mov	 ecx, 52			; 00000034H
  00017	b8 cc cc cc cc	 mov	 eax, -858993460		; ccccccccH
  0001c	f3 ab		 rep stosd
  0001e	a1 00 00 00 00	 mov	 eax, DWORD PTR ___security_cookie
  00023	33 c5		 xor	 eax, ebp
  00025	89 45 fc	 mov	 DWORD PTR __$ArrayPad$[ebp], eax

; 12   : 	int resulti = 0;

  00028	c7 45 f4 00 00
	00 00		 mov	 DWORD PTR _resulti$[ebp], 0

; 13   : 
; 14   : 	gdebug1 = 0;					// a couple of global variables that could be used for debugging

  0002f	c6 05 00 00 00
	00 00		 mov	 BYTE PTR ?gdebug1@@3EA, 0 ; gdebug1

; 15   : 	gdebug2 = 0;					// also can have a breakpoint in C code

  00036	c6 05 00 00 00
	00 00		 mov	 BYTE PTR ?gdebug2@@3EA, 0 ; gdebug2

; 16   : 
; 17   : 	// You can not declare any local variables in C, but should use resulti to indicate any errors
; 18   : 	// Set up the stack frame and assign variables in assembly if you need to do so
; 19   : 	// access the parameters BEFORE setting up your own stack frame
; 20   : 	// Also, you cannot use a lot of global variables - work with registers
; 21   : 
; 22   : 	__asm {
; 23   : 			mov esi, gptrPasswordHash	// put address of gPasswordHas into esi

  0003d	8b 35 00 00 00
	00		 mov	 esi, DWORD PTR ?gptrPasswordHash@@3PAEA ; gptrPasswordHash

; 24   : 			xor eax, eax				//

  00043	33 c0		 xor	 eax, eax

; 25   : 			mov al, byte ptr[esi]		// store gPassword[0] in al

  00045	8a 06		 mov	 al, BYTE PTR [esi]

; 26   : 			mov bl, 256					//

  00047	b3 00		 mov	 bl, 0

; 27   : 			mul bl						// multiply al by 256

  00049	f6 e3		 mul	 bl

; 28   : 			add al, byte ptr[esi + 1]	// add gPassword[1] to al, al is now starting index for keyfile

  0004b	02 46 01	 add	 al, BYTE PTR [esi+1]

; 29   : 			mov gdebug1, al				// al = starting_index = gPasswordHash[0] * 256 + gPasswordHash[1]

  0004e	a2 00 00 00 00	 mov	 BYTE PTR ?gdebug1@@3EA, al ; gdebug1

; 30   : 
; 31   : 			xor ebx, ebx				// ebx = control variable (loop)

  00053	33 db		 xor	 ebx, ebx

; 32   : 			mov ecx, dataLength			// ecx = length

  00055	8b 4d 0c	 mov	 ecx, DWORD PTR _dataLength$[ebp]

; 33   : 			cmp ecx, 0					// check that length is not <= 0

  00058	83 f9 00	 cmp	 ecx, 0

; 34   : 			sub ecx, 1					// ecx-- (file length is 1 less than what we had)

  0005b	83 e9 01	 sub	 ecx, 1

; 35   : 			jbe lbl_EXIT_ZERO_LENGTH	//

  0005e	76 1b		 jbe	 SHORT $lbl_EXIT_ZERO_LENGTH$3

; 36   : 
; 37   : 			mov edi, data				// put address of first byte of data in edi

  00060	8b 7d 08	 mov	 edi, DWORD PTR _data$[ebp]

; 38   : 			mov esi, gptrKey			// put address of gKey into esi

  00063	8b 35 00 00 00
	00		 mov	 esi, DWORD PTR ?gptrKey@@3PAEA ; gptrKey
$lbl_LOOP$4:

; 39   : 
; 40   : 			//
; 41   : 			// LOOP THROUGH ENTIRE data[] BYTE BY BYTE
; 42   : 			//
; 43   : lbl_LOOP :
; 44   : 			mov dl, byte ptr[edi + ebx]	//

  00069	8a 14 1f	 mov	 dl, BYTE PTR [edi+ebx]

; 45   : 			xor dl, byte ptr[esi + eax]	// data[ebx] = data[ebx] ^ keyfile[starting_index]

  0006c	32 14 06	 xor	 dl, BYTE PTR [esi+eax]

; 46   : 			mov byte ptr[edi + ebx], dl	//

  0006f	88 14 1f	 mov	 BYTE PTR [edi+ebx], dl

; 47   : 
; 48   : 			add ebx, 1					// ebx++

  00072	83 c3 01	 add	 ebx, 1

; 49   : 			cmp ebx, ecx				// if(ebx > ecx) end loop

  00075	3b d9		 cmp	 ebx, ecx

; 50   : 			ja lbl_EXIT_END				//

  00077	77 07		 ja	 SHORT $lbl_EXIT_END$5

; 51   : 			jmp lbl_LOOP				// else loop

  00079	eb ee		 jmp	 SHORT $lbl_LOOP$4
$lbl_EXIT_ZERO_LENGTH$3:

; 52   : 
; 53   : lbl_EXIT_ZERO_LENGTH :
; 54   : 			sub ebx, 1		// decrement ebx to -1 to return failure

  0007b	83 eb 01	 sub	 ebx, 1

; 55   : 			jmp lbl_EXIT	//

  0007e	eb 02		 jmp	 SHORT $lbl_EXIT$6
$lbl_EXIT_END$5:

; 56   : 
; 57   : lbl_EXIT_END :
; 58   : 			xor ebx, ebx	// ebx = 0, correctly executed

  00080	33 db		 xor	 ebx, ebx
$lbl_EXIT$6:

; 59   : 
; 60   : lbl_EXIT :
; 61   : 			mov resulti, ebx

  00082	89 5d f4	 mov	 DWORD PTR _resulti$[ebp], ebx

; 62   : 	}
; 63   : 
; 64   : 	return resulti;

  00085	8b 45 f4	 mov	 eax, DWORD PTR _resulti$[ebp]

; 65   : } // encryptData

  00088	5f		 pop	 edi
  00089	5e		 pop	 esi
  0008a	5b		 pop	 ebx
  0008b	8b 4d fc	 mov	 ecx, DWORD PTR __$ArrayPad$[ebp]
  0008e	33 cd		 xor	 ecx, ebp
  00090	e8 00 00 00 00	 call	 @__security_check_cookie@4
  00095	81 c4 d0 00 00
	00		 add	 esp, 208		; 000000d0H
  0009b	3b ec		 cmp	 ebp, esp
  0009d	e8 00 00 00 00	 call	 __RTC_CheckEsp
  000a2	8b e5		 mov	 esp, ebp
  000a4	5d		 pop	 ebp
  000a5	c3		 ret	 0
?encryptData@@YAHPADH@Z ENDP				; encryptData
_TEXT	ENDS
END
